target datalayout = "e-m:e-p270:32:32-p271:32:32-p272:64:64-i64:64-i128:128-f80:128-n8:16:32:64-S128"
target triple = "x86_64-pc-linux-gnu"

%struct.AVRational = type { i32, i32 }
%struct.AVCodecContext = type { ptr, i32, i32, ptr, i32, i32, ptr, ptr, ptr, i64, i32, i32, ptr, i32, %struct.AVRational, %struct.AVRational, %struct.AVRational, i32, i32, i32, i32, i32, %struct.AVRational, i32, i32, i32, i32, i32, i32, i32, i32, i32, i32, i32, ptr, ptr, i32, float, float, float, float, float, float, float, float, float, i32, i32, i32, i32, i32, i32, i32, i32, i32, i32, i32, i32, ptr, ptr, ptr, i32, i32, i32, i32, i32, i32, i32, i32, i32, i32, %struct.AVChannelLayout, i32, i32, i32, i32, i32, i32, i32, i32, ptr, i32, i32, i32, float, float, i32, i32, i32, i32, i32, ptr, i64, i64, float, float, i32, i32, ptr, ptr, i32, i32, i32, i32, i32, ptr, ptr, ptr, ptr, i32, i32, [8 x i64], i32, i32, i32, i32, i32, i32, i32, ptr, ptr, i32, i32, i32, i32, i32, i32, i32, i32, i32, i32, ptr, ptr, i32, i32, ptr, ptr, ptr, ptr, i32, i32, i64, i32, i32, i64, ptr, i64, ptr, i32, ptr, i32 }
%struct.AVChannelLayout = type { i32, i32, %union.anon, ptr }
%union.anon = type { i64 }
%struct.TwinVQContext = type { ptr, ptr, [3 x ptr], [3 x ptr], ptr, i32, [2 x [20 x float]], [3 x [2 x [40 x float]]], [4 x [4096 x i16]], [4 x [2 x i8]], [4 x i8], [2 x [4 x [2 x i8]]], [4 x i32], [4 x i32], ptr, ptr, ptr, [2 x i32], i32, [3 x ptr], ptr, i32, i32, i32, [2 x %struct.TwinVQFrameData], i32, ptr, ptr, ptr }
%struct.TwinVQFrameData = type { i32, i32, [1024 x i8], [60 x i8], [2 x i8], [32 x i8], [2 x [16 x [4 x i8]]], [2 x [16 x i8]], [2 x i8], [2 x [4 x i8]], [2 x i8], [2 x i32], [2 x i32] }

@.str.1 = private unnamed_addr constant [38 x i8] c"Block align is %ld bits, expected %d\0A\00", align 1
@.str.2 = private unnamed_addr constant [34 x i8] c"Too many frames per packet (%ld)\0A\00", align 1
@.str.3 = private unnamed_addr constant [25 x i8] c"Error initializing MDCT\0A\00", align 1

; Function Attrs: inlinehint nounwind uwtable
define internal void @twinvq_memset_float(ptr noundef %0, float noundef %1, i32 noundef %2) #4 {
  %4 = alloca ptr, align 8
  %5 = alloca float, align 4
  %6 = alloca i32, align 4
  store ptr %0, ptr %4, align 8, !tbaa !68
  store float %1, ptr %5, align 4, !tbaa !86
  store i32 %2, ptr %6, align 4, !tbaa !25
  br label %7

7:                                                ; preds = %11, %3
  %8 = load i32, ptr %6, align 4, !tbaa !25
  %9 = add nsw i32 %8, -1
  store i32 %9, ptr %6, align 4, !tbaa !25
  %10 = icmp ne i32 %8, 0
  br i1 %10, label %11, label %15

11:                                               ; preds = %7
  %12 = load float, ptr %5, align 4, !tbaa !86
  %13 = load ptr, ptr %4, align 8, !tbaa !68
  %14 = getelementptr inbounds nuw float, ptr %13, i32 1
  store ptr %14, ptr %4, align 8, !tbaa !68
  store float %12, ptr %13, align 4, !tbaa !86
  br label %7, !llvm.loop !124

15:                                               ; preds = %7
  ret void
}

; Function Attrs: cold nounwind optsize uwtable
define hidden i32 @ff_twinvq_decode_init(ptr noundef %0) #3 {
  %2 = alloca i32, align 4
  %3 = alloca ptr, align 8
  %4 = alloca i32, align 4
  %5 = alloca ptr, align 8
  %6 = alloca i64, align 8
  %7 = alloca i32, align 4
  store ptr %0, ptr %3, align 8, !tbaa !4
  call void @llvm.lifetime.start.p0(i64 4, ptr %4) #8
  call void @llvm.lifetime.start.p0(i64 8, ptr %5) #8
  %8 = load ptr, ptr %3, align 8, !tbaa !4
  %9 = getelementptr inbounds nuw %struct.AVCodecContext, ptr %8, i32 0, i32 6
  %10 = load ptr, ptr %9, align 8, !tbaa !26
  store ptr %10, ptr %5, align 8, !tbaa !39
  call void @llvm.lifetime.start.p0(i64 8, ptr %6) #8
  %11 = load ptr, ptr %3, align 8, !tbaa !4
  %12 = load ptr, ptr %5, align 8, !tbaa !39
  %13 = getelementptr inbounds nuw %struct.TwinVQContext, ptr %12, i32 0, i32 0
  store ptr %11, ptr %13, align 8, !tbaa !74
  %14 = load ptr, ptr %3, align 8, !tbaa !4
  %15 = getelementptr inbounds nuw %struct.AVCodecContext, ptr %14, i32 0, i32 70
  store i32 8, ptr %15, align 4, !tbaa !97
  %16 = load ptr, ptr %3, align 8, !tbaa !4
  %17 = getelementptr inbounds nuw %struct.AVCodecContext, ptr %16, i32 0, i32 73
  %18 = load i32, ptr %17, align 4, !tbaa !60
  %19 = icmp ne i32 %18, 0
  br i1 %19, label %28, label %20

20:                                               ; preds = %1
  %21 = load ptr, ptr %5, align 8, !tbaa !39
  %22 = getelementptr inbounds nuw %struct.TwinVQContext, ptr %21, i32 0, i32 21
  %23 = load i32, ptr %22, align 8, !tbaa !98
  %24 = add nsw i32 %23, 7
  %25 = ashr i32 %24, 3
  %26 = load ptr, ptr %3, align 8, !tbaa !4
  %27 = getelementptr inbounds nuw %struct.AVCodecContext, ptr %26, i32 0, i32 73
  store i32 %25, ptr %27, align 4, !tbaa !60
  br label %28

28:                                               ; preds = %20, %1
  %29 = load ptr, ptr %3, align 8, !tbaa !4
  %30 = getelementptr inbounds nuw %struct.AVCodecContext, ptr %29, i32 0, i32 73
  %31 = load i32, ptr %30, align 4, !tbaa !60
  %32 = sext i32 %31 to i64
  %33 = mul nsw i64 %32, 8
  %34 = load ptr, ptr %5, align 8, !tbaa !39
  %35 = getelementptr inbounds nuw %struct.TwinVQContext, ptr %34, i32 0, i32 21
  %36 = load i32, ptr %35, align 8, !tbaa !98
  %37 = sext i32 %36 to i64
  %38 = sdiv i64 %33, %37
  store i64 %38, ptr %6, align 8, !tbaa !99
  %39 = load i64, ptr %6, align 8, !tbaa !99
  %40 = icmp sle i64 %39, 0
  br i1 %40, label %41, label %51

41:                                               ; preds = %28
  %42 = load ptr, ptr %3, align 8, !tbaa !4
  %43 = load ptr, ptr %3, align 8, !tbaa !4
  %44 = getelementptr inbounds nuw %struct.AVCodecContext, ptr %43, i32 0, i32 73
  %45 = load i32, ptr %44, align 4, !tbaa !60
  %46 = sext i32 %45 to i64
  %47 = mul nsw i64 %46, 8
  %48 = load ptr, ptr %5, align 8, !tbaa !39
  %49 = getelementptr inbounds nuw %struct.TwinVQContext, ptr %48, i32 0, i32 21
  %50 = load i32, ptr %49, align 8, !tbaa !98
  call void (ptr, i32, ptr, ...) @av_log(ptr noundef %42, i32 noundef 16, ptr noundef @.str.1, i64 noundef %47, i32 noundef %50)
  store i32 -1094995529, ptr %2, align 4
  store i32 1, ptr %7, align 4
  br label %88

51:                                               ; preds = %28
  %52 = load i64, ptr %6, align 8, !tbaa !99
  %53 = icmp sgt i64 %52, 2
  br i1 %53, label %54, label %57

54:                                               ; preds = %51
  %55 = load ptr, ptr %3, align 8, !tbaa !4
  %56 = load i64, ptr %6, align 8, !tbaa !99
  call void (ptr, i32, ptr, ...) @av_log(ptr noundef %55, i32 noundef 16, ptr noundef @.str.2, i64 noundef %56)
  store i32 -1094995529, ptr %2, align 4
  store i32 1, ptr %7, align 4
  br label %88

57:                                               ; preds = %51
  %58 = load i64, ptr %6, align 8, !tbaa !99
  %59 = trunc i64 %58 to i32
  %60 = load ptr, ptr %5, align 8, !tbaa !39
  %61 = getelementptr inbounds nuw %struct.TwinVQContext, ptr %60, i32 0, i32 22
  store i32 %59, ptr %61, align 4, !tbaa !53
  %62 = load ptr, ptr %3, align 8, !tbaa !4
  %63 = getelementptr inbounds nuw %struct.AVCodecContext, ptr %62, i32 0, i32 10
  %64 = load i32, ptr %63, align 8, !tbaa !100
  %65 = and i32 %64, 8388608
  %66 = call ptr @avpriv_float_dsp_alloc(i32 noundef %65)
  %67 = load ptr, ptr %5, align 8, !tbaa !39
  %68 = getelementptr inbounds nuw %struct.TwinVQContext, ptr %67, i32 0, i32 1
  store ptr %66, ptr %68, align 8, !tbaa !87
  %69 = load ptr, ptr %5, align 8, !tbaa !39
  %70 = getelementptr inbounds nuw %struct.TwinVQContext, ptr %69, i32 0, i32 1
  %71 = load ptr, ptr %70, align 8, !tbaa !87
  %72 = icmp ne ptr %71, null
  br i1 %72, label %74, label %73

73:                                               ; preds = %57
  store i32 -12, ptr %2, align 4
  store i32 1, ptr %7, align 4
  br label %88

74:                                               ; preds = %57
  %75 = load ptr, ptr %5, align 8, !tbaa !39
  %76 = call i32 @init_mdct_win(ptr noundef %75) #9
  store i32 %76, ptr %4, align 4, !tbaa !25
  %77 = icmp ne i32 %76, 0
  br i1 %77, label %78, label %81

78:                                               ; preds = %74
  %79 = load ptr, ptr %3, align 8, !tbaa !4
  call void (ptr, i32, ptr, ...) @av_log(ptr noundef %79, i32 noundef 16, ptr noundef @.str.3)
  %80 = load i32, ptr %4, align 4, !tbaa !25
  store i32 %80, ptr %2, align 4
  store i32 1, ptr %7, align 4
  br label %88

81:                                               ; preds = %74
  %82 = load ptr, ptr %5, align 8, !tbaa !39
  call void @init_bitstream_params(ptr noundef %82) #9
  %83 = load ptr, ptr %5, align 8, !tbaa !39
  %84 = getelementptr inbounds nuw %struct.TwinVQContext, ptr %83, i32 0, i32 7
  %85 = getelementptr inbounds [3 x [2 x [40 x float]]], ptr %84, i64 0, i64 0
  %86 = getelementptr inbounds [2 x [40 x float]], ptr %85, i64 0, i64 0
  %87 = getelementptr inbounds [40 x float], ptr %86, i64 0, i64 0
  call void @twinvq_memset_float(ptr noundef %87, float noundef 0x3FB99999A0000000, i32 noundef 3)
  store i32 0, ptr %2, align 4
  store i32 1, ptr %7, align 4
  br label %88

88:                                               ; preds = %81, %78, %73, %54, %41
  call void @llvm.lifetime.end.p0(i64 8, ptr %6) #8
  call void @llvm.lifetime.end.p0(i64 8, ptr %5) #8
  call void @llvm.lifetime.end.p0(i64 4, ptr %4) #8
  %89 = load i32, ptr %2, align 4
  ret i32 %89
}