; Function Attrs: cold nounwind optsize uwtable
define hidden i32 @ff_twinvq_decode_init(ptr noundef %0) local_unnamed_addr #3 {
  %2 = getelementptr inbounds nuw i8, ptr %0, i64 32
  %3 = load ptr, ptr %2, align 8, !tbaa !16
  store ptr %0, ptr %3, align 8, !tbaa !53
  %4 = getelementptr inbounds nuw i8, ptr %0, i64 348
  store i32 8, ptr %4, align 4, !tbaa !108
  %5 = getelementptr inbounds nuw i8, ptr %0, i64 380
  %6 = load i32, ptr %5, align 4, !tbaa !47
  %.not = icmp eq i32 %6, 0
  %7 = getelementptr inbounds nuw i8, ptr %3, i64 34096
  %8 = load i32, ptr %7, align 8, !tbaa !109
  br i1 %.not, label %9, label %._crit_edge

9:                                                ; preds = %1
  %10 = add nsw i32 %8, 7
  %11 = ashr i32 %10, 3
  store i32 %11, ptr %5, align 4, !tbaa !47
  br label %._crit_edge

._crit_edge:                                      ; preds = %1, %9
  %12 = phi i32 [ %11, %9 ], [ %6, %1 ]
  %13 = sext i32 %12 to i64
  %14 = shl nsw i64 %13, 3
  %15 = sext i32 %8 to i64
  %16 = sdiv i64 %14, %15
  %17 = icmp slt i64 %16, 1
  br i1 %17, label %18, label %19

18:                                               ; preds = %._crit_edge
  tail call void (ptr, i32, ptr, ...) @av_log(ptr noundef nonnull %0, i32 noundef 16, ptr noundef nonnull @.str.1, i64 noundef %14, i32 noundef %8) #10
  br label %twinvq_memset_float.exit

19:                                               ; preds = %._crit_edge
  %20 = icmp samesign ugt i64 %16, 2
  br i1 %20, label %21, label %22

21:                                               ; preds = %19
  tail call void (ptr, i32, ptr, ...) @av_log(ptr noundef nonnull %0, i32 noundef 16, ptr noundef nonnull @.str.2, i64 noundef %16) #10
  br label %twinvq_memset_float.exit

22:                                               ; preds = %19
  %23 = trunc nuw nsw i64 %16 to i32
  %24 = getelementptr inbounds nuw i8, ptr %3, i64 34100
  store i32 %23, ptr %24, align 4, !tbaa !40
  %25 = getelementptr inbounds nuw i8, ptr %0, i64 64
  %26 = load i32, ptr %25, align 8, !tbaa !110
  %27 = and i32 %26, 8388608
  %28 = tail call ptr @avpriv_float_dsp_alloc(i32 noundef %27) #10
  %29 = getelementptr inbounds nuw i8, ptr %3, i64 8
  store ptr %28, ptr %29, align 8, !tbaa !74
  %.not28 = icmp eq ptr %28, null
  br i1 %.not28, label %twinvq_memset_float.exit, label %30

30:                                               ; preds = %22
  %31 = tail call fastcc i32 @init_mdct_win(ptr noundef nonnull %3) #11
  %.not29 = icmp eq i32 %31, 0
  br i1 %.not29, label %33, label %32

32:                                               ; preds = %30
  tail call void (ptr, i32, ptr, ...) @av_log(ptr noundef nonnull %0, i32 noundef 16, ptr noundef nonnull @.str.3) #10
  br label %twinvq_memset_float.exit

33:                                               ; preds = %30
  tail call fastcc void @init_bitstream_params(ptr noundef nonnull %3) #11
  %34 = getelementptr inbounds nuw i8, ptr %3, i64 236
  br label %35

35:                                               ; preds = %35, %33
  %.04.i = phi i32 [ 3, %33 ], [ %36, %35 ]
  %.023.i = phi ptr [ %34, %33 ], [ %37, %35 ]
  %36 = add nsw i32 %.04.i, -1
  %37 = getelementptr inbounds nuw i8, ptr %.023.i, i64 4
  store float 0x3FB99999A0000000, ptr %.023.i, align 4, !tbaa !63
  %.not.i = icmp eq i32 %36, 0
  br i1 %.not.i, label %twinvq_memset_float.exit, label %35, !llvm.loop !90

twinvq_memset_float.exit:                         ; preds = %35, %22, %32, %21, %18
  %.0 = phi i32 [ -1094995529, %18 ], [ -1094995529, %21 ], [ %31, %32 ], [ -12, %22 ], [ 0, %35 ]
  ret i32 %.0
}